target datalayout = "e-m:e-p270:32:32-p271:32:32-p272:64:64-i64:64-i128:128-f80:128-n8:16:32:64-S128"
target triple = "x86_64-pc-linux-gnu"

%struct.pmix_object_t = type { %union.pthread_mutex_t, ptr, i32, %struct.pmix_tma }
%union.pthread_mutex_t = type { %struct.__pthread_mutex_s }
%struct.__pthread_mutex_s = type { i32, i32, i32, i32, i32, i16, i16, %struct.__pthread_internal_list }
%struct.__pthread_internal_list = type { ptr, ptr }
%struct.pmix_tma = type { ptr, ptr, ptr, ptr, ptr, ptr, ptr, ptr }
%struct.pmix_proc = type { [256 x i8], i32 }
%struct.timeval = type { i64, i64 }
%struct.pmix_iof_flags_t = type { i8, i8, i8, i8, i8, i8, i8, ptr, ptr, i8, i8, i8, i8, i8, i8 }
%struct.pmix_class_t = type { ptr, ptr, ptr, ptr, i32, i32, ptr, ptr, i64 }
%struct.event = type { %struct.event_callback, %union.anon.0, i32, ptr, %union.anon.2, i16, i16, %struct.timeval }
%struct.event_callback = type { %struct.anon, i16, i8, i8, %union.anon, ptr }
%struct.anon = type { ptr, ptr }
%union.anon = type { ptr }
%union.anon.0 = type { %struct.anon.1 }
%struct.anon.1 = type { ptr, ptr }
%union.anon.2 = type { %struct.anon.3 }
%struct.anon.3 = type { %struct.anon.4, %struct.timeval }
%struct.anon.4 = type { ptr, ptr }
%struct.pmix_lock_t = type { i32, %struct.pmix_mutex_t, %union.pthread_cond_t, i8 }
%struct.pmix_mutex_t = type { %struct.pmix_object_t, %union.pthread_mutex_t }
%union.pthread_cond_t = type { %struct.__pthread_cond_s }
%struct.__pthread_cond_s = type { %union.__atomic_wide_counter, %union.__atomic_wide_counter, [2 x i32], [2 x i32], i32, i32, [2 x i32] }
%union.__atomic_wide_counter = type { i64 }
%struct.pmix_setup_caddy_t = type { %struct.pmix_object_t, %struct.event, %struct.pmix_lock_t, ptr, ptr, i32, ptr, i64, %struct.pmix_proc, ptr, i64, i32, i32, ptr, i32, ptr, i64, ptr, i64, i8, ptr, ptr, i64, i16, %struct.pmix_iof_flags_t, ptr, i64, i64, i32, ptr, ptr, ptr, ptr, ptr, ptr }

@.str.86 = private unnamed_addr constant [21 x i8] c"pthread_mutex_lock()\00", align 1

; Function Attrs: inlinehint nounwind uwtable
define internal void @pmix_tma_free(ptr noundef %0, ptr noundef %1) #4 {
  %3 = alloca ptr, align 8
  %4 = alloca ptr, align 8
  store ptr %0, ptr %3, align 8, !tbaa !132
  store ptr %1, ptr %4, align 8, !tbaa !8
  %5 = load ptr, ptr %3, align 8, !tbaa !132
  %6 = icmp ne ptr null, %5
  br i1 %6, label %7, label %13

7:                                                ; preds = %2
  %8 = load ptr, ptr %3, align 8, !tbaa !132
  %9 = getelementptr inbounds nuw %struct.pmix_tma, ptr %8, i32 0, i32 5
  %10 = load ptr, ptr %9, align 8, !tbaa !148
  %11 = load ptr, ptr %3, align 8, !tbaa !132
  %12 = load ptr, ptr %4, align 8, !tbaa !8
  call void %10(ptr noundef %11, ptr noundef %12)
  br label %15

13:                                               ; preds = %2
  %14 = load ptr, ptr %4, align 8, !tbaa !8
  call void @free(ptr noundef %14) #14
  br label %15

15:                                               ; preds = %13, %7
  ret void
}

; Function Attrs: inlinehint nounwind uwtable
define internal void @pmix_obj_run_destructors(ptr noundef %0) #4 {
  %2 = alloca ptr, align 8
  %3 = alloca ptr, align 8
  store ptr %0, ptr %2, align 8, !tbaa !89
  call void @llvm.lifetime.start.p0(i64 8, ptr %3) #14
  %4 = load ptr, ptr %2, align 8, !tbaa !89
  %5 = getelementptr inbounds nuw %struct.pmix_object_t, ptr %4, i32 0, i32 1
  %6 = load ptr, ptr %5, align 8, !tbaa !82
  %7 = getelementptr inbounds nuw %struct.pmix_class_t, ptr %6, i32 0, i32 7
  %8 = load ptr, ptr %7, align 8, !tbaa !146
  store ptr %8, ptr %3, align 8, !tbaa !8
  br label %9

9:                                                ; preds = %13, %1
  %10 = load ptr, ptr %3, align 8, !tbaa !8
  %11 = load ptr, ptr %10, align 8, !tbaa !8
  %12 = icmp ne ptr null, %11
  br i1 %12, label %13, label %19

13:                                               ; preds = %9
  %14 = load ptr, ptr %3, align 8, !tbaa !8
  %15 = load ptr, ptr %14, align 8, !tbaa !8
  %16 = load ptr, ptr %2, align 8, !tbaa !89
  call void %15(ptr noundef %16)
  %17 = load ptr, ptr %3, align 8, !tbaa !8
  %18 = getelementptr inbounds nuw ptr, ptr %17, i32 1
  store ptr %18, ptr %3, align 8, !tbaa !8
  br label %9, !llvm.loop !147

19:                                               ; preds = %9
  call void @llvm.lifetime.end.p0(i64 8, ptr %3) #14
  ret void
}

; Function Attrs: alwaysinline nounwind uwtable
define internal i32 @pmix_obj_update(ptr noundef %0, i32 noundef %1) #6 {
  %3 = alloca ptr, align 8
  %4 = alloca i32, align 4
  %5 = alloca i32, align 4
  store ptr %0, ptr %3, align 8, !tbaa !89
  store i32 %1, ptr %4, align 4, !tbaa !28
  call void @llvm.lifetime.start.p0(i64 4, ptr %5) #14
  %6 = load ptr, ptr %3, align 8, !tbaa !89
  %7 = getelementptr inbounds nuw %struct.pmix_object_t, ptr %6, i32 0, i32 0
  %8 = call i32 @pthread_mutex_lock(ptr noundef %7) #14
  store i32 %8, ptr %5, align 4, !tbaa !28
  %9 = load i32, ptr %5, align 4, !tbaa !28
  %10 = icmp eq i32 %9, 35
  br i1 %10, label %11, label %14

11:                                               ; preds = %2
  %12 = load i32, ptr %5, align 4, !tbaa !28
  %13 = call ptr @__errno_location() #16
  store i32 %12, ptr %13, align 4, !tbaa !28
  call void @perror(ptr noundef @.str.86)
  call void @abort() #17
  unreachable

14:                                               ; preds = %2
  %15 = load i32, ptr %4, align 4, !tbaa !28
  %16 = load ptr, ptr %3, align 8, !tbaa !89
  %17 = getelementptr inbounds nuw %struct.pmix_object_t, ptr %16, i32 0, i32 2
  %18 = load i32, ptr %17, align 8, !tbaa !83
  %19 = add nsw i32 %18, %15
  store i32 %19, ptr %17, align 8, !tbaa !83
  store i32 %19, ptr %5, align 4, !tbaa !28
  %20 = load ptr, ptr %3, align 8, !tbaa !89
  %21 = getelementptr inbounds nuw %struct.pmix_object_t, ptr %20, i32 0, i32 0
  %22 = call i32 @pthread_mutex_unlock(ptr noundef %21) #14
  %23 = load i32, ptr %5, align 4, !tbaa !28
  call void @llvm.lifetime.end.p0(i64 4, ptr %5) #14
  ret i32 %23
}

; Function Attrs: nounwind uwtable
define internal void @scaddes(ptr noundef %0) #0 {
  %2 = alloca ptr, align 8
  %3 = alloca ptr, align 8
  store ptr %0, ptr %2, align 8, !tbaa !8
  %4 = load ptr, ptr %2, align 8, !tbaa !8
  %5 = getelementptr inbounds nuw %struct.pmix_setup_caddy_t, ptr %4, i32 0, i32 3
  %6 = load ptr, ptr %5, align 8, !tbaa !263
  %7 = icmp ne ptr null, %6
  br i1 %7, label %8, label %38

8:                                                ; preds = %1
  br label %9

9:                                                ; preds = %8
  call void @llvm.lifetime.start.p0(i64 8, ptr %3) #14
  %10 = load ptr, ptr %2, align 8, !tbaa !8
  %11 = getelementptr inbounds nuw %struct.pmix_setup_caddy_t, ptr %10, i32 0, i32 3
  %12 = load ptr, ptr %11, align 8, !tbaa !263
  store ptr %12, ptr %3, align 8, !tbaa !89
  %13 = load ptr, ptr %3, align 8, !tbaa !89
  %14 = call i32 @pmix_obj_update(ptr noundef %13, i32 noundef -1)
  %15 = icmp eq i32 0, %14
  br i1 %15, label %16, label %36

16:                                               ; preds = %9
  %17 = load ptr, ptr %3, align 8, !tbaa !89
  call void @pmix_obj_run_destructors(ptr noundef %17)
  %18 = load ptr, ptr %3, align 8, !tbaa !89
  %19 = getelementptr inbounds nuw %struct.pmix_object_t, ptr %18, i32 0, i32 3
  %20 = getelementptr inbounds nuw %struct.pmix_tma, ptr %19, i32 0, i32 5
  %21 = load ptr, ptr %20, align 8, !tbaa !91
  %22 = icmp ne ptr null, %21
  br i1 %22, label %23, label %29

23:                                               ; preds = %16
  %24 = load ptr, ptr %3, align 8, !tbaa !89
  %25 = getelementptr inbounds nuw %struct.pmix_object_t, ptr %24, i32 0, i32 3
  %26 = load ptr, ptr %2, align 8, !tbaa !8
  %27 = getelementptr inbounds nuw %struct.pmix_setup_caddy_t, ptr %26, i32 0, i32 3
  %28 = load ptr, ptr %27, align 8, !tbaa !263
  call void @pmix_tma_free(ptr noundef %25, ptr noundef %28)
  br label %33

29:                                               ; preds = %16
  %30 = load ptr, ptr %2, align 8, !tbaa !8
  %31 = getelementptr inbounds nuw %struct.pmix_setup_caddy_t, ptr %30, i32 0, i32 3
  %32 = load ptr, ptr %31, align 8, !tbaa !263
  call void @free(ptr noundef %32) #14
  br label %33

33:                                               ; preds = %29, %23
  %34 = load ptr, ptr %2, align 8, !tbaa !8
  %35 = getelementptr inbounds nuw %struct.pmix_setup_caddy_t, ptr %34, i32 0, i32 3
  store ptr null, ptr %35, align 8, !tbaa !263
  br label %36

36:                                               ; preds = %33, %9
  call void @llvm.lifetime.end.p0(i64 8, ptr %3) #14
  br label %37

37:                                               ; preds = %36
  br label %38

38:                                               ; preds = %37, %1
  br label %39

39:                                               ; preds = %38
  %40 = load ptr, ptr %2, align 8, !tbaa !8
  %41 = getelementptr inbounds nuw %struct.pmix_setup_caddy_t, ptr %40, i32 0, i32 9
  %42 = load ptr, ptr %41, align 8, !tbaa !299
  %43 = load ptr, ptr %2, align 8, !tbaa !8
  %44 = getelementptr inbounds nuw %struct.pmix_setup_caddy_t, ptr %43, i32 0, i32 10
  %45 = load i64, ptr %44, align 8, !tbaa !300
  call void @PMIx_Proc_free(ptr noundef %42, i64 noundef %45)
  %46 = load ptr, ptr %2, align 8, !tbaa !8
  %47 = getelementptr inbounds nuw %struct.pmix_setup_caddy_t, ptr %46, i32 0, i32 9
  store ptr null, ptr %47, align 8, !tbaa !299
  br label %48

48:                                               ; preds = %39
  %49 = load ptr, ptr %2, align 8, !tbaa !8
  %50 = getelementptr inbounds nuw %struct.pmix_setup_caddy_t, ptr %49, i32 0, i32 19
  %51 = load i8, ptr %50, align 8, !tbaa !274, !range !116, !noundef !117
  %52 = trunc i8 %51 to i1
  br i1 %52, label %53, label %86

53:                                               ; preds = %48
  %54 = load ptr, ptr %2, align 8, !tbaa !8
  %55 = getelementptr inbounds nuw %struct.pmix_setup_caddy_t, ptr %54, i32 0, i32 15
  %56 = load ptr, ptr %55, align 8, !tbaa !233
  %57 = icmp ne ptr null, %56
  br i1 %57, label %58, label %69

58:                                               ; preds = %53
  br label %59

59:                                               ; preds = %58
  %60 = load ptr, ptr %2, align 8, !tbaa !8
  %61 = getelementptr inbounds nuw %struct.pmix_setup_caddy_t, ptr %60, i32 0, i32 15
  %62 = load ptr, ptr %61, align 8, !tbaa !233
  %63 = load ptr, ptr %2, align 8, !tbaa !8
  %64 = getelementptr inbounds nuw %struct.pmix_setup_caddy_t, ptr %63, i32 0, i32 16
  %65 = load i64, ptr %64, align 8, !tbaa !232
  call void @PMIx_Info_free(ptr noundef %62, i64 noundef %65)
  %66 = load ptr, ptr %2, align 8, !tbaa !8
  %67 = getelementptr inbounds nuw %struct.pmix_setup_caddy_t, ptr %66, i32 0, i32 15
  store ptr null, ptr %67, align 8, !tbaa !233
  br label %68

68:                                               ; preds = %59
  br label %69

69:                                               ; preds = %68, %53
  %70 = load ptr, ptr %2, align 8, !tbaa !8
  %71 = getelementptr inbounds nuw %struct.pmix_setup_caddy_t, ptr %70, i32 0, i32 21
  %72 = load ptr, ptr %71, align 8, !tbaa !273
  %73 = icmp ne ptr null, %72
  br i1 %73, label %74, label %85

74:                                               ; preds = %69
  br label %75

75:                                               ; preds = %74
  %76 = load ptr, ptr %2, align 8, !tbaa !8
  %77 = getelementptr inbounds nuw %struct.pmix_setup_caddy_t, ptr %76, i32 0, i32 21
  %78 = load ptr, ptr %77, align 8, !tbaa !273
  %79 = load ptr, ptr %2, align 8, !tbaa !8
  %80 = getelementptr inbounds nuw %struct.pmix_setup_caddy_t, ptr %79, i32 0, i32 22
  %81 = load i64, ptr %80, align 8, !tbaa !272
  call void @PMIx_App_free(ptr noundef %78, i64 noundef %81)
  %82 = load ptr, ptr %2, align 8, !tbaa !8
  %83 = getelementptr inbounds nuw %struct.pmix_setup_caddy_t, ptr %82, i32 0, i32 21
  store ptr null, ptr %83, align 8, !tbaa !273
  br label %84

84:                                               ; preds = %75
  br label %85

85:                                               ; preds = %84, %69
  br label %86

86:                                               ; preds = %85, %48
  br label %87

87:                                               ; preds = %86
  %88 = load ptr, ptr %2, align 8, !tbaa !8
  %89 = getelementptr inbounds nuw %struct.pmix_setup_caddy_t, ptr %88, i32 0, i32 17
  %90 = load ptr, ptr %89, align 8, !tbaa !435
  %91 = load ptr, ptr %2, align 8, !tbaa !8
  %92 = getelementptr inbounds nuw %struct.pmix_setup_caddy_t, ptr %91, i32 0, i32 18
  %93 = load i64, ptr %92, align 8, !tbaa !434
  call void @PMIx_Resource_unit_free(ptr noundef %90, i64 noundef %93)
  %94 = load ptr, ptr %2, align 8, !tbaa !8
  %95 = getelementptr inbounds nuw %struct.pmix_setup_caddy_t, ptr %94, i32 0, i32 17
  store ptr null, ptr %95, align 8, !tbaa !435
  br label %96

96:                                               ; preds = %87
  %97 = load ptr, ptr %2, align 8, !tbaa !8
  %98 = getelementptr inbounds nuw %struct.pmix_setup_caddy_t, ptr %97, i32 0, i32 25
  %99 = load ptr, ptr %98, align 8, !tbaa !411
  %100 = icmp ne ptr null, %99
  br i1 %100, label %101, label %112

101:                                              ; preds = %96
  br label %102

102:                                              ; preds = %101
  %103 = load ptr, ptr %2, align 8, !tbaa !8
  %104 = getelementptr inbounds nuw %struct.pmix_setup_caddy_t, ptr %103, i32 0, i32 25
  %105 = load ptr, ptr %104, align 8, !tbaa !411
  %106 = load ptr, ptr %2, align 8, !tbaa !8
  %107 = getelementptr inbounds nuw %struct.pmix_setup_caddy_t, ptr %106, i32 0, i32 26
  %108 = load i64, ptr %107, align 8, !tbaa !452
  call void @PMIx_Byte_object_free(ptr noundef %105, i64 noundef %108)
  %109 = load ptr, ptr %2, align 8, !tbaa !8
  %110 = getelementptr inbounds nuw %struct.pmix_setup_caddy_t, ptr %109, i32 0, i32 25
  store ptr null, ptr %110, align 8, !tbaa !411
  br label %111

111:                                              ; preds = %102
  br label %112

112:                                              ; preds = %111, %96
  br label %113

113:                                              ; preds = %112
  br label %114

114:                                              ; preds = %113
  %115 = load ptr, ptr %2, align 8, !tbaa !8
  %116 = getelementptr inbounds nuw %struct.pmix_setup_caddy_t, ptr %115, i32 0, i32 2
  %117 = getelementptr inbounds nuw %struct.pmix_lock_t, ptr %116, i32 0, i32 1
  call void @pmix_obj_run_destructors(ptr noundef %117)
  br label %118

118:                                              ; preds = %114
  %119 = load ptr, ptr %2, align 8, !tbaa !8
  %120 = getelementptr inbounds nuw %struct.pmix_setup_caddy_t, ptr %119, i32 0, i32 2
  %121 = getelementptr inbounds nuw %struct.pmix_lock_t, ptr %120, i32 0, i32 2
  %122 = call i32 @pthread_cond_destroy(ptr noundef %121) #14
  br label %123

123:                                              ; preds = %118
  %124 = load ptr, ptr %2, align 8, !tbaa !8
  %125 = getelementptr inbounds nuw %struct.pmix_setup_caddy_t, ptr %124, i32 0, i32 24
  %126 = getelementptr inbounds nuw %struct.pmix_iof_flags_t, ptr %125, i32 0, i32 7
  %127 = load ptr, ptr %126, align 8, !tbaa !454
  %128 = icmp ne ptr null, %127
  br i1 %128, label %129, label %134

129:                                              ; preds = %123
  %130 = load ptr, ptr %2, align 8, !tbaa !8
  %131 = getelementptr inbounds nuw %struct.pmix_setup_caddy_t, ptr %130, i32 0, i32 24
  %132 = getelementptr inbounds nuw %struct.pmix_iof_flags_t, ptr %131, i32 0, i32 7
  %133 = load ptr, ptr %132, align 8, !tbaa !454
  call void @free(ptr noundef %133) #14
  br label %134

134:                                              ; preds = %129, %123
  %135 = load ptr, ptr %2, align 8, !tbaa !8
  %136 = getelementptr inbounds nuw %struct.pmix_setup_caddy_t, ptr %135, i32 0, i32 24
  %137 = getelementptr inbounds nuw %struct.pmix_iof_flags_t, ptr %136, i32 0, i32 8
  %138 = load ptr, ptr %137, align 8, !tbaa !455
  %139 = icmp ne ptr null, %138
  br i1 %139, label %140, label %145

140:                                              ; preds = %134
  %141 = load ptr, ptr %2, align 8, !tbaa !8
  %142 = getelementptr inbounds nuw %struct.pmix_setup_caddy_t, ptr %141, i32 0, i32 24
  %143 = getelementptr inbounds nuw %struct.pmix_iof_flags_t, ptr %142, i32 0, i32 8
  %144 = load ptr, ptr %143, align 8, !tbaa !455
  call void @free(ptr noundef %144) #14
  br label %145

145:                                              ; preds = %140, %134
  ret void
}