; Function Attrs: nounwind uwtable
define internal void @scaddes(ptr noundef %0) #0 {
  %2 = getelementptr inbounds nuw i8, ptr %0, i64 472
  %3 = load ptr, ptr %2, align 8, !tbaa !214
  %.not = icmp eq ptr %3, null
  br i1 %.not, label %31, label %4

4:                                                ; preds = %1
  %5 = tail call i32 @pthread_mutex_lock(ptr noundef nonnull %3) #19
  %6 = icmp eq i32 %5, 35
  br i1 %6, label %7, label %pmix_obj_update.exit

7:                                                ; preds = %4
  %8 = tail call ptr @__errno_location() #22
  store i32 35, ptr %8, align 4, !tbaa !23
  tail call void @perror(ptr noundef nonnull @.str.86) #23
  tail call void @abort() #24
  unreachable

pmix_obj_update.exit:                             ; preds = %4
  %9 = getelementptr inbounds nuw i8, ptr %3, i64 48
  %10 = load i32, ptr %9, align 8, !tbaa !78
  %11 = add nsw i32 %10, -1
  store i32 %11, ptr %9, align 8, !tbaa !78
  %12 = tail call i32 @pthread_mutex_unlock(ptr noundef nonnull %3) #19
  %13 = icmp eq i32 %11, 0
  br i1 %13, label %14, label %31

14:                                               ; preds = %pmix_obj_update.exit
  %15 = getelementptr inbounds nuw i8, ptr %3, i64 40
  %16 = load ptr, ptr %15, align 8, !tbaa !77
  %17 = getelementptr inbounds nuw i8, ptr %16, i64 48
  %18 = load ptr, ptr %17, align 8, !tbaa !88
  %19 = load ptr, ptr %18, align 8, !tbaa !80
  %.not6.i = icmp eq ptr %19, null
  br i1 %.not6.i, label %pmix_obj_run_destructors.exit, label %.lr.ph.i

.lr.ph.i:                                         ; preds = %14, %.lr.ph.i
  %20 = phi ptr [ %22, %.lr.ph.i ], [ %19, %14 ]
  %.07.i = phi ptr [ %21, %.lr.ph.i ], [ %18, %14 ]
  tail call void %20(ptr noundef nonnull %3) #19
  %21 = getelementptr inbounds nuw i8, ptr %.07.i, i64 8
  %22 = load ptr, ptr %21, align 8, !tbaa !80
  %.not.i = icmp eq ptr %22, null
  br i1 %.not.i, label %pmix_obj_run_destructors.exit, label %.lr.ph.i, !llvm.loop !89

pmix_obj_run_destructors.exit:                    ; preds = %.lr.ph.i, %14
  %23 = getelementptr inbounds nuw i8, ptr %3, i64 96
  %24 = load ptr, ptr %23, align 8, !tbaa !90
  %.not39 = icmp eq ptr %24, null
  br i1 %.not39, label %28, label %25

25:                                               ; preds = %pmix_obj_run_destructors.exit
  %26 = getelementptr inbounds nuw i8, ptr %3, i64 56
  %27 = load ptr, ptr %2, align 8, !tbaa !214
  tail call void %24(ptr noundef nonnull %26, ptr noundef %27) #19
  br label %30

28:                                               ; preds = %pmix_obj_run_destructors.exit
  %29 = load ptr, ptr %2, align 8, !tbaa !214
  tail call void @free(ptr noundef %29) #19
  br label %30

30:                                               ; preds = %28, %25
  store ptr null, ptr %2, align 8, !tbaa !214
  br label %31

31:                                               ; preds = %pmix_obj_update.exit, %30, %1
  %32 = getelementptr inbounds nuw i8, ptr %0, i64 776
  %33 = load ptr, ptr %32, align 8, !tbaa !248
  %34 = getelementptr inbounds nuw i8, ptr %0, i64 784
  %35 = load i64, ptr %34, align 8, !tbaa !249
  tail call void @PMIx_Proc_free(ptr noundef %33, i64 noundef %35) #19
  store ptr null, ptr %32, align 8, !tbaa !248
  %36 = getelementptr inbounds nuw i8, ptr %0, i64 848
  %37 = load i8, ptr %36, align 8, !tbaa !224, !range !117, !noundef !151
  %38 = trunc nuw i8 %37 to i1
  br i1 %38, label %39, label %51

39:                                               ; preds = %31
  %40 = getelementptr inbounds nuw i8, ptr %0, i64 816
  %41 = load ptr, ptr %40, align 8, !tbaa !200
  %.not40 = icmp eq ptr %41, null
  br i1 %.not40, label %45, label %42

42:                                               ; preds = %39
  %43 = getelementptr inbounds nuw i8, ptr %0, i64 824
  %44 = load i64, ptr %43, align 8, !tbaa !199
  tail call void @PMIx_Info_free(ptr noundef nonnull %41, i64 noundef %44) #19
  store ptr null, ptr %40, align 8, !tbaa !200
  br label %45

45:                                               ; preds = %42, %39
  %46 = getelementptr inbounds nuw i8, ptr %0, i64 864
  %47 = load ptr, ptr %46, align 8, !tbaa !223
  %.not41 = icmp eq ptr %47, null
  br i1 %.not41, label %51, label %48

48:                                               ; preds = %45
  %49 = getelementptr inbounds nuw i8, ptr %0, i64 872
  %50 = load i64, ptr %49, align 8, !tbaa !222
  tail call void @PMIx_App_free(ptr noundef nonnull %47, i64 noundef %50) #19
  store ptr null, ptr %46, align 8, !tbaa !223
  br label %51

51:                                               ; preds = %31, %48, %45
  %52 = getelementptr inbounds nuw i8, ptr %0, i64 832
  %53 = load ptr, ptr %52, align 8, !tbaa !386
  %54 = getelementptr inbounds nuw i8, ptr %0, i64 840
  %55 = load i64, ptr %54, align 8, !tbaa !385
  tail call void @PMIx_Resource_unit_free(ptr noundef %53, i64 noundef %55) #19
  store ptr null, ptr %52, align 8, !tbaa !386
  %56 = getelementptr inbounds nuw i8, ptr %0, i64 920
  %57 = load ptr, ptr %56, align 8, !tbaa !364
  %.not42 = icmp eq ptr %57, null
  br i1 %.not42, label %61, label %58

58:                                               ; preds = %51
  %59 = getelementptr inbounds nuw i8, ptr %0, i64 928
  %60 = load i64, ptr %59, align 8, !tbaa !400
  tail call void @PMIx_Byte_object_free(ptr noundef nonnull %57, i64 noundef %60) #19
  store ptr null, ptr %56, align 8, !tbaa !364
  br label %61

61:                                               ; preds = %58, %51
  %62 = getelementptr inbounds nuw i8, ptr %0, i64 256
  %63 = getelementptr inbounds nuw i8, ptr %0, i64 296
  %64 = load ptr, ptr %63, align 8, !tbaa !77
  %65 = getelementptr inbounds nuw i8, ptr %64, i64 48
  %66 = load ptr, ptr %65, align 8, !tbaa !88
  %67 = load ptr, ptr %66, align 8, !tbaa !80
  %.not6.i46 = icmp eq ptr %67, null
  br i1 %.not6.i46, label %pmix_obj_run_destructors.exit50, label %.lr.ph.i47

.lr.ph.i47:                                       ; preds = %61, %.lr.ph.i47
  %68 = phi ptr [ %70, %.lr.ph.i47 ], [ %67, %61 ]
  %.07.i48 = phi ptr [ %69, %.lr.ph.i47 ], [ %66, %61 ]
  tail call void %68(ptr noundef nonnull %62) #19
  %69 = getelementptr inbounds nuw i8, ptr %.07.i48, i64 8
  %70 = load ptr, ptr %69, align 8, !tbaa !80
  %.not.i49 = icmp eq ptr %70, null
  br i1 %.not.i49, label %pmix_obj_run_destructors.exit50, label %.lr.ph.i47, !llvm.loop !89

pmix_obj_run_destructors.exit50:                  ; preds = %.lr.ph.i47, %61
  %71 = getelementptr inbounds nuw i8, ptr %0, i64 416
  %72 = tail call i32 @pthread_cond_destroy(ptr noundef nonnull %71) #19
  %73 = getelementptr inbounds nuw i8, ptr %0, i64 896
  %74 = load ptr, ptr %73, align 8, !tbaa !401
  %.not43 = icmp eq ptr %74, null
  br i1 %.not43, label %76, label %75

75:                                               ; preds = %pmix_obj_run_destructors.exit50
  tail call void @free(ptr noundef nonnull %74) #19
  br label %76

76:                                               ; preds = %75, %pmix_obj_run_destructors.exit50
  %77 = getelementptr inbounds nuw i8, ptr %0, i64 904
  %78 = load ptr, ptr %77, align 8, !tbaa !402
  %.not44 = icmp eq ptr %78, null
  br i1 %.not44, label %80, label %79

79:                                               ; preds = %76
  tail call void @free(ptr noundef nonnull %78) #19
  br label %80

80:                                               ; preds = %79, %76
  ret void
}